; Function Attrs: nounwind uwtable
define hidden i32 @_ir_SNAPSHOT(ptr nocapture noundef %0, i32 noundef %1) local_unnamed_addr #0 {
  %3 = add nsw i32 %1, 1
  %4 = getelementptr inbounds i8, ptr %0, i64 8
  %5 = load i32, ptr %4, align 8
  %6 = sdiv i32 %3, 4
  %7 = add i32 %5, %6
  %8 = getelementptr inbounds i8, ptr %0, i64 12
  %9 = load i32, ptr %8, align 4
  %.not22.i = icmp slt i32 %7, %9
  %.pre30.i = load ptr, ptr %0, align 8
  br i1 %.not22.i, label %._crit_edge.i, label %.lr.ph.i

.lr.ph.i:                                         ; preds = %2
  %10 = getelementptr inbounds i8, ptr %0, i64 20
  %.pre29.i = load i32, ptr %10, align 4
  br label %11

11:                                               ; preds = %11, %.lr.ph.i
  %12 = phi i32 [ %.pre29.i, %.lr.ph.i ], [ %26, %11 ]
  %13 = phi ptr [ %.pre30.i, %.lr.ph.i ], [ %28, %11 ]
  %14 = phi i32 [ %9, %.lr.ph.i ], [ %29, %11 ]
  %15 = icmp slt i32 %14, 4096
  %16 = shl nsw i32 %14, 1
  %17 = icmp ult i32 %14, 8192
  %18 = add nuw nsw i32 %14, 4096
  %spec.select.i.i = select i1 %17, i32 8192, i32 %18
  %.sink.i.i = select i1 %15, i32 %16, i32 %spec.select.i.i
  store i32 %.sink.i.i, ptr %8, align 4
  %19 = sext i32 %12 to i64
  %20 = sub nsw i64 0, %19
  %21 = getelementptr inbounds %struct._ir_insn, ptr %13, i64 %20
  %22 = add nsw i32 %.sink.i.i, %12
  %23 = sext i32 %22 to i64
  %24 = shl nsw i64 %23, 4
  %25 = tail call ptr @_erealloc(ptr noundef %21, i64 noundef %24) #24
  %26 = load i32, ptr %10, align 4
  %27 = sext i32 %26 to i64
  %28 = getelementptr inbounds %struct._ir_insn, ptr %25, i64 %27
  store ptr %28, ptr %0, align 8
  %29 = load i32, ptr %8, align 4
  %.not.i = icmp slt i32 %7, %29
  br i1 %.not.i, label %._crit_edge.i, label %11

._crit_edge.i:                                    ; preds = %11, %2
  %30 = phi ptr [ %.pre30.i, %2 ], [ %28, %11 ]
  %31 = add nsw i32 %7, 1
  store i32 %31, ptr %4, align 8
  %32 = sext i32 %5 to i64
  %33 = getelementptr inbounds %struct._ir_insn, ptr %30, i64 %32
  %34 = shl i32 %3, 16
  %35 = or disjoint i32 %34, 88
  store i32 %35, ptr %33, align 8
  %.not2123.i = icmp slt i32 %1, -1
  br i1 %.not2123.i, label %ir_emit_N.exit, label %.lr.ph27.preheader.i

.lr.ph27.preheader.i:                             ; preds = %._crit_edge.i
  %36 = or i32 %3, 3
  %37 = shl nsw i64 %32, 4
  %38 = or disjoint i64 %37, 4
  %scevgep.i = getelementptr i8, ptr %30, i64 %38
  %39 = zext nneg i32 %36 to i64
  %40 = shl nuw nsw i64 %39, 2
  tail call void @llvm.memset.p0.i64(ptr noundef nonnull align 4 dereferenceable(1) %scevgep.i, i8 0, i64 %40, i1 false)
  br label %ir_emit_N.exit

ir_emit_N.exit:                                   ; preds = %._crit_edge.i, %.lr.ph27.preheader.i
  %41 = getelementptr inbounds i8, ptr %0, i64 248
  %42 = load i32, ptr %41, align 8
  %43 = load ptr, ptr %0, align 8
  %44 = getelementptr inbounds %struct._ir_insn, ptr %43, i64 %32, i32 0, i32 1
  store i32 %42, ptr %44, align 4
  store i32 %5, ptr %41, align 8
  ret i32 %5
}